target datalayout = "e-m:e-p270:32:32-p271:32:32-p272:64:64-i64:64-i128:128-f80:128-n8:16:32:64-S128"
target triple = "x86_64-pc-linux-gnu"

%"class.mitsuba::MemoryStream" = type <{ %"class.mitsuba::Stream", i64, i64, i64, i8, [7 x i8], ptr, i8, [7 x i8] }>
%"class.mitsuba::Stream" = type { %"class.mitsuba::Object.base", i32 }
%"class.mitsuba::Object.base" = type <{ ptr, %"struct.std::__1::atomic" }>
%"struct.std::__1::atomic" = type { %"struct.std::__1::__atomic_base" }
%"struct.std::__1::__atomic_base" = type { %"struct.std::__1::__atomic_base.0" }
%"struct.std::__1::__atomic_base.0" = type { %"struct.std::__1::__cxx_atomic_impl" }
%"struct.std::__1::__cxx_atomic_impl" = type { %"struct.std::__1::__cxx_atomic_base_impl" }
%"struct.std::__1::__cxx_atomic_base_impl" = type { i32 }

; Function Attrs: mustprogress uwtable
define void @_ZN7mitsuba12MemoryStreamC2Em(ptr noundef nonnull align 8 dereferenceable(57) %0, i64 noundef %1) unnamed_addr #0 align 2 personality ptr @__gxx_personality_v0 {
  %3 = alloca ptr, align 8
  %4 = alloca i64, align 8
  %5 = alloca ptr, align 8
  %6 = alloca i32, align 4
  store ptr %0, ptr %3, align 8
  store i64 %1, ptr %4, align 8
  %7 = load ptr, ptr %3, align 8
  call void @_ZN7mitsuba6StreamC2Ev(ptr noundef nonnull align 8 dereferenceable(16) %7)
  store ptr getelementptr inbounds inrange(-16, 176) ({ [24 x ptr] }, ptr @_ZTVN7mitsuba12MemoryStreamE, i32 0, i32 0, i32 2), ptr %7, align 8
  %8 = getelementptr inbounds %"class.mitsuba::MemoryStream", ptr %7, i32 0, i32 1
  store i64 0, ptr %8, align 8
  %9 = getelementptr inbounds %"class.mitsuba::MemoryStream", ptr %7, i32 0, i32 2
  store i64 0, ptr %9, align 8
  %10 = getelementptr inbounds %"class.mitsuba::MemoryStream", ptr %7, i32 0, i32 3
  store i64 0, ptr %10, align 8
  %11 = getelementptr inbounds %"class.mitsuba::MemoryStream", ptr %7, i32 0, i32 4
  store i8 1, ptr %11, align 8
  %12 = getelementptr inbounds %"class.mitsuba::MemoryStream", ptr %7, i32 0, i32 6
  store ptr null, ptr %12, align 8
  %13 = getelementptr inbounds %"class.mitsuba::MemoryStream", ptr %7, i32 0, i32 7
  store i8 0, ptr %13, align 8
  %14 = load i64, ptr %4, align 8
  invoke void @_ZN7mitsuba12MemoryStream6resizeEm(ptr noundef nonnull align 8 dereferenceable(57) %7, i64 noundef %14)
          to label %15 unwind label %16

15:                                               ; preds = %2
  ret void

16:                                               ; preds = %2
  %17 = landingpad { ptr, i32 }
          cleanup
  %18 = extractvalue { ptr, i32 } %17, 0
  store ptr %18, ptr %5, align 8
  %19 = extractvalue { ptr, i32 } %17, 1
  store i32 %19, ptr %6, align 4
  call void @_ZN7mitsuba6StreamD2Ev(ptr noundef nonnull align 8 dereferenceable(16) %7) #15
  br label %20

20:                                               ; preds = %16
  %21 = load ptr, ptr %5, align 8
  %22 = load i32, ptr %6, align 4
  %23 = insertvalue { ptr, i32 } poison, ptr %21, 0
  %24 = insertvalue { ptr, i32 } %23, i32 %22, 1
  resume { ptr, i32 } %24
}