; Function Attrs: mustprogress uwtable
define void @_ZN7mitsuba12MemoryStreamC2Em(ptr noundef nonnull align 8 dereferenceable(57) %0, i64 noundef %1) unnamed_addr #0 align 2 personality ptr @__gxx_personality_v0 {
  tail call void @_ZN7mitsuba6StreamC2Ev(ptr noundef nonnull align 8 dereferenceable(16) %0)
  store ptr getelementptr inbounds inrange(-16, 176) ({ [24 x ptr] }, ptr @_ZTVN7mitsuba12MemoryStreamE, i64 0, i32 0, i64 2), ptr %0, align 8
  %3 = getelementptr inbounds i8, ptr %0, i64 16
  %4 = getelementptr inbounds i8, ptr %0, i64 40
  tail call void @llvm.memset.p0.i64(ptr noundef nonnull align 8 dereferenceable(24) %3, i8 0, i64 24, i1 false)
  store i8 1, ptr %4, align 8
  %5 = getelementptr inbounds i8, ptr %0, i64 48
  store ptr null, ptr %5, align 8
  %6 = getelementptr inbounds i8, ptr %0, i64 56
  store i8 0, ptr %6, align 8
  invoke void @_ZN7mitsuba12MemoryStream6resizeEm(ptr noundef nonnull align 8 dereferenceable(57) %0, i64 noundef %1)
          to label %7 unwind label %8

7:                                                ; preds = %2
  ret void

8:                                                ; preds = %2
  %9 = landingpad { ptr, i32 }
          cleanup
  tail call void @_ZN7mitsuba6StreamD2Ev(ptr noundef nonnull align 8 dereferenceable(16) %0) #17
  resume { ptr, i32 } %9
}